target datalayout = "e-m:e-p270:32:32-p271:32:32-p272:64:64-i64:64-i128:128-f80:128-n8:16:32:64-S128"
target triple = "x86_64-pc-linux-gnu"

%struct.Rectangle = type { float, float, float, float }
%struct.Vector2 = type { float, float }

; Function Attrs: nounwind uwtable
define zeroext i1 @CheckCollisionPointRec(<2 x float> %0, <2 x float> %1, <2 x float> %2) #0 {
  %4 = alloca %struct.Vector2, align 4
  %5 = alloca %struct.Rectangle, align 4
  %6 = alloca i8, align 1
  store <2 x float> %0, ptr %4, align 4
  %7 = getelementptr inbounds nuw { <2 x float>, <2 x float> }, ptr %5, i32 0, i32 0
  store <2 x float> %1, ptr %7, align 4
  %8 = getelementptr inbounds nuw { <2 x float>, <2 x float> }, ptr %5, i32 0, i32 1
  store <2 x float> %2, ptr %8, align 4
  call void @llvm.lifetime.start.p0(i64 1, ptr %6) #8
  store i8 0, ptr %6, align 1
  %9 = getelementptr inbounds nuw %struct.Vector2, ptr %4, i32 0, i32 0
  %10 = load float, ptr %9, align 4
  %11 = getelementptr inbounds nuw %struct.Rectangle, ptr %5, i32 0, i32 0
  %12 = load float, ptr %11, align 4
  %13 = fcmp oge float %10, %12
  br i1 %13, label %14, label %39

14:                                               ; preds = %3
  %15 = getelementptr inbounds nuw %struct.Vector2, ptr %4, i32 0, i32 0
  %16 = load float, ptr %15, align 4
  %17 = getelementptr inbounds nuw %struct.Rectangle, ptr %5, i32 0, i32 0
  %18 = load float, ptr %17, align 4
  %19 = getelementptr inbounds nuw %struct.Rectangle, ptr %5, i32 0, i32 2
  %20 = load float, ptr %19, align 4
  %21 = fadd float %18, %20
  %22 = fcmp olt float %16, %21
  br i1 %22, label %23, label %39

23:                                               ; preds = %14
  %24 = getelementptr inbounds nuw %struct.Vector2, ptr %4, i32 0, i32 1
  %25 = load float, ptr %24, align 4
  %26 = getelementptr inbounds nuw %struct.Rectangle, ptr %5, i32 0, i32 1
  %27 = load float, ptr %26, align 4
  %28 = fcmp oge float %25, %27
  br i1 %28, label %29, label %39

29:                                               ; preds = %23
  %30 = getelementptr inbounds nuw %struct.Vector2, ptr %4, i32 0, i32 1
  %31 = load float, ptr %30, align 4
  %32 = getelementptr inbounds nuw %struct.Rectangle, ptr %5, i32 0, i32 1
  %33 = load float, ptr %32, align 4
  %34 = getelementptr inbounds nuw %struct.Rectangle, ptr %5, i32 0, i32 3
  %35 = load float, ptr %34, align 4
  %36 = fadd float %33, %35
  %37 = fcmp olt float %31, %36
  br i1 %37, label %38, label %39

38:                                               ; preds = %29
  store i8 1, ptr %6, align 1
  br label %39

39:                                               ; preds = %38, %29, %23, %14, %3
  %40 = load i8, ptr %6, align 1, !range !3, !noundef !4
  %41 = trunc i8 %40 to i1
  call void @llvm.lifetime.end.p0(i64 1, ptr %6) #8
  ret i1 %41
}