; Function Attrs: mustprogress nofree norecurse nosync nounwind willreturn memory(none) uwtable
define zeroext i1 @CheckCollisionPointRec(<2 x float> %0, <2 x float> %1, <2 x float> %2) local_unnamed_addr #11 {
  %.sroa.05.0.vec.extract = extractelement <2 x float> %0, i64 0
  %.sroa.0.0.vec.extract = extractelement <2 x float> %1, i64 0
  %4 = fcmp oge float %.sroa.05.0.vec.extract, %.sroa.0.0.vec.extract
  %5 = fadd <2 x float> %1, %2
  %6 = extractelement <2 x float> %5, i64 0
  %7 = fcmp olt float %.sroa.05.0.vec.extract, %6
  %or.cond = select i1 %4, i1 %7, i1 false
  br i1 %or.cond, label %8, label %13

8:                                                ; preds = %3
  %.sroa.05.4.vec.extract = extractelement <2 x float> %0, i64 1
  %.sroa.0.4.vec.extract = extractelement <2 x float> %1, i64 1
  %9 = fcmp oge float %.sroa.05.4.vec.extract, %.sroa.0.4.vec.extract
  %10 = fadd <2 x float> %1, %2
  %11 = extractelement <2 x float> %10, i64 1
  %12 = fcmp olt float %.sroa.05.4.vec.extract, %11
  %or.cond12 = select i1 %9, i1 %12, i1 false
  br label %13

13:                                               ; preds = %8, %3
  %.0 = phi i1 [ false, %3 ], [ %or.cond12, %8 ]
  ret i1 %.0
}